; ModuleID = '23/922.c'
source_filename = "23/922.c"
target datalayout = "e-m:e-p270:32:32-p271:32:32-p272:64:64-i64:64-f80:128-n8:16:32:64-S128"
target triple = "x86_64-pc-linux-gnu"

@.str = private unnamed_addr constant [3 x i8] c"%s\00", align 1

; Function Attrs: noinline nounwind uwtable
define dso_local void @main() #0 {
  %1 = alloca i32, align 4
  %2 = alloca i32, align 4
  %3 = alloca i32, align 4
  %4 = alloca i32, align 4
  %5 = alloca [100 x i8], align 16
  %6 = alloca [100 x i8], align 16
  %7 = bitcast [100 x i8]* %6 to i8*
  call void @llvm.memset.p0i8.i64(i8* align 16 %7, i8 0, i64 100, i1 false)
  %8 = getelementptr inbounds [100 x i8], [100 x i8]* %5, i64 0, i64 0
  %9 = call i32 (i8*, ...) bitcast (i32 (...)* @gets to i32 (i8*, ...)*)(i8* %8)
  %10 = getelementptr inbounds [100 x i8], [100 x i8]* %5, i64 0, i64 0
  %11 = call i64 @strlen(i8* %10) #4
  %12 = trunc i64 %11 to i32
  store i32 %12, i32* %1, align 4
  %13 = load i32, i32* %1, align 4
  store i32 %13, i32* %4, align 4
  %14 = load i32, i32* %1, align 4
  %15 = sub nsw i32 %14, 1
  store i32 %15, i32* %3, align 4
  br label %16

16:                                               ; preds = %64, %0
  %17 = load i32, i32* %3, align 4
  %18 = icmp sge i32 %17, 0
  br i1 %18, label %19, label %67

19:                                               ; preds = %16
  %20 = load i32, i32* %3, align 4
  %21 = sext i32 %20 to i64
  %22 = getelementptr inbounds [100 x i8], [100 x i8]* %5, i64 0, i64 %21
  %23 = load i8, i8* %22, align 1
  %24 = sext i8 %23 to i32
  %25 = icmp eq i32 %24, 32
  br i1 %25, label %26, label %63

26:                                               ; preds = %19
  %27 = load i32, i32* %3, align 4
  %28 = add nsw i32 %27, 1
  store i32 %28, i32* %2, align 4
  br label %29

29:                                               ; preds = %48, %26
  %30 = load i32, i32* %2, align 4
  %31 = load i32, i32* %4, align 4
  %32 = icmp slt i32 %30, %31
  br i1 %32, label %33, label %51

33:                                               ; preds = %29
  %34 = load i32, i32* %2, align 4
  %35 = sext i32 %34 to i64
  %36 = getelementptr inbounds [100 x i8], [100 x i8]* %5, i64 0, i64 %35
  %37 = load i8, i8* %36, align 1
  %38 = load i32, i32* %1, align 4
  %39 = load i32, i32* %4, align 4
  %40 = sub nsw i32 %38, %39
  %41 = sub nsw i32 %40, 1
  %42 = load i32, i32* %2, align 4
  %43 = add nsw i32 %41, %42
  %44 = load i32, i32* %3, align 4
  %45 = sub nsw i32 %43, %44
  %46 = sext i32 %45 to i64
  %47 = getelementptr inbounds [100 x i8], [100 x i8]* %6, i64 0, i64 %46
  store i8 %37, i8* %47, align 1
  br label %48

48:                                               ; preds = %33
  %49 = load i32, i32* %2, align 4
  %50 = add nsw i32 %49, 1
  store i32 %50, i32* %2, align 4
  br label %29

51:                                               ; preds = %29
  %52 = load i32, i32* %3, align 4
  store i32 %52, i32* %4, align 4
  %53 = load i32, i32* %3, align 4
  %54 = sext i32 %53 to i64
  %55 = getelementptr inbounds [100 x i8], [100 x i8]* %5, i64 0, i64 %54
  %56 = load i8, i8* %55, align 1
  %57 = load i32, i32* %1, align 4
  %58 = sub nsw i32 %57, 1
  %59 = load i32, i32* %3, align 4
  %60 = sub nsw i32 %58, %59
  %61 = sext i32 %60 to i64
  %62 = getelementptr inbounds [100 x i8], [100 x i8]* %6, i64 0, i64 %61
  store i8 %56, i8* %62, align 1
  br label %63

63:                                               ; preds = %51, %19
  br label %64

64:                                               ; preds = %63
  %65 = load i32, i32* %3, align 4
  %66 = add nsw i32 %65, -1
  store i32 %66, i32* %3, align 4
  br label %16

67:                                               ; preds = %16
  %68 = load i32, i32* %3, align 4
  %69 = icmp slt i32 %68, 0
  br i1 %69, label %70, label %91

70:                                               ; preds = %67
  store i32 0, i32* %2, align 4
  br label %71

71:                                               ; preds = %87, %70
  %72 = load i32, i32* %2, align 4
  %73 = load i32, i32* %4, align 4
  %74 = icmp slt i32 %72, %73
  br i1 %74, label %75, label %90

75:                                               ; preds = %71
  %76 = load i32, i32* %2, align 4
  %77 = sext i32 %76 to i64
  %78 = getelementptr inbounds [100 x i8], [100 x i8]* %5, i64 0, i64 %77
  %79 = load i8, i8* %78, align 1
  %80 = load i32, i32* %1, align 4
  %81 = load i32, i32* %4, align 4
  %82 = sub nsw i32 %80, %81
  %83 = load i32, i32* %2, align 4
  %84 = add nsw i32 %82, %83
  %85 = sext i32 %84 to i64
  %86 = getelementptr inbounds [100 x i8], [100 x i8]* %6, i64 0, i64 %85
  store i8 %79, i8* %86, align 1
  br label %87

87:                                               ; preds = %75
  %88 = load i32, i32* %2, align 4
  %89 = add nsw i32 %88, 1
  store i32 %89, i32* %2, align 4
  br label %71

90:                                               ; preds = %71
  br label %91

91:                                               ; preds = %90, %67
  %92 = getelementptr inbounds [100 x i8], [100 x i8]* %6, i64 0, i64 0
  %93 = call i32 (i8*, ...) @printf(i8* getelementptr inbounds ([3 x i8], [3 x i8]* @.str, i64 0, i64 0), i8* %92)
  ret void
}

; Function Attrs: argmemonly nounwind willreturn
declare void @llvm.memset.p0i8.i64(i8* nocapture writeonly, i8, i64, i1 immarg) #1

declare dso_local i32 @gets(...) #2

; Function Attrs: nounwind readonly
declare dso_local i64 @strlen(i8*) #3

declare dso_local i32 @printf(i8*, ...) #2


!llvm.module.flags = !{!0}
!llvm.ident = !{!1}

!0 = !{i32 1, !"wchar_size", i32 4}
!1 = !{!"clang version 10.0.0-4ubuntu1 "}
